; Function Attrs: mustprogress nounwind uwtable
define hidden void @_ZN10JvmtiAgent18initialization_endEv(ptr nocapture noundef nonnull align 8 dereferenceable(86) %0) local_unnamed_addr #0 align 2 {
  %2 = tail call { i64, i64 } @_ZN29CompositeElapsedCounterSource3nowEv() #12
  %3 = extractvalue { i64, i64 } %2, 0
  %4 = extractvalue { i64, i64 } %2, 1
  %5 = load i64, ptr %0, align 8
  %6 = sub nsw i64 %3, %5
  %7 = getelementptr inbounds i8, ptr %0, i64 8
  %8 = load i64, ptr %7, align 8
  %9 = sub nsw i64 %4, %8
  %10 = getelementptr inbounds i8, ptr %0, i64 16
  store i64 %6, ptr %10, align 8
  %.sroa.2.0..sroa_idx = getelementptr inbounds i8, ptr %0, i64 24
  store i64 %9, ptr %.sroa.2.0..sroa_idx, align 8
  ret void
}